; Function Attrs: nounwind uwtable
define internal fastcc noundef ptr @set_up(ptr noundef %0) unnamed_addr #1 {
  %2 = tail call noalias ptr @CRYPTO_zalloc(i64 noundef 16, ptr noundef nonnull @.str, i32 noundef 32) #6
  %3 = tail call i32 @test_ptr(ptr noundef nonnull @.str, i32 noundef 32, ptr noundef nonnull @.str.56, ptr noundef %2) #6
  %.not = icmp eq i32 %3, 0
  br i1 %.not, label %10, label %4

4:                                                ; preds = %1
  %5 = tail call ptr @OSSL_CMP_CTX_new(ptr noundef null, ptr noundef null) #6
  %6 = getelementptr inbounds nuw i8, ptr %2, i64 8
  store ptr %5, ptr %6, align 8, !tbaa !4
  %7 = tail call i32 @test_ptr(ptr noundef nonnull @.str, i32 noundef 34, ptr noundef nonnull @.str.57, ptr noundef %5) #6
  %.not6 = icmp eq i32 %7, 0
  br i1 %.not6, label %tear_down.exit, label %9

tear_down.exit:                                   ; preds = %4
  %8 = load ptr, ptr %6, align 8, !tbaa !4
  tail call void @OSSL_CMP_CTX_free(ptr noundef %8) #6
  tail call void @CRYPTO_free(ptr noundef nonnull %2, ptr noundef nonnull @.str, i32 noundef 25) #6
  br label %10

9:                                                ; preds = %4
  store ptr %0, ptr %2, align 8, !tbaa !70
  br label %10

10:                                               ; preds = %1, %9, %tear_down.exit
  %.0 = phi ptr [ %2, %9 ], [ null, %tear_down.exit ], [ null, %1 ]
  ret ptr %.0
}